; Function Attrs: nounwind uwtable
define internal ptr @typealias_subscript(ptr noundef %0, ptr noundef %1) #0 {
  %3 = getelementptr inbounds nuw i8, ptr %0, i64 24
  %4 = load ptr, ptr %3, align 8, !tbaa !134
  %5 = icmp eq ptr %4, null
  br i1 %5, label %6, label %8

6:                                                ; preds = %2
  %7 = load ptr, ptr @PyExc_TypeError, align 8, !tbaa !16
  tail call void @PyErr_SetString(ptr noundef %7, ptr noundef nonnull @.str.101) #8
  br label %10

8:                                                ; preds = %2
  %9 = tail call ptr @Py_GenericAlias(ptr noundef nonnull %0, ptr noundef %1) #8
  br label %10

10:                                               ; preds = %8, %6
  %.0 = phi ptr [ null, %6 ], [ %9, %8 ]
  ret ptr %.0
}